target datalayout = "e-m:e-p270:32:32-p271:32:32-p272:64:64-i64:64-i128:128-f80:128-n8:16:32:64-S128"
target triple = "x86_64-pc-linux-gnu"

%struct.httpreq = type { [24 x i8], ptr, ptr, ptr, %struct.dynhds, %struct.dynhds }
%struct.dynhds = type { ptr, i64, i64, i64, i64, i64, i32 }

@Curl_cfree = external global ptr, align 8
@Curl_ccalloc = external global ptr, align 8

; Function Attrs: nounwind uwtable
define dso_local void @Curl_http_req_free(ptr noundef %0) #0 {
  %2 = alloca ptr, align 8
  store ptr %0, ptr %2, align 8, !tbaa !249
  %3 = load ptr, ptr %2, align 8, !tbaa !249
  %4 = icmp ne ptr %3, null
  br i1 %4, label %5, label %24

5:                                                ; preds = %1
  %6 = load ptr, ptr @Curl_cfree, align 8, !tbaa !97
  %7 = load ptr, ptr %2, align 8, !tbaa !249
  %8 = getelementptr inbounds nuw %struct.httpreq, ptr %7, i32 0, i32 1
  %9 = load ptr, ptr %8, align 8, !tbaa !251
  call void %6(ptr noundef %9)
  %10 = load ptr, ptr @Curl_cfree, align 8, !tbaa !97
  %11 = load ptr, ptr %2, align 8, !tbaa !249
  %12 = getelementptr inbounds nuw %struct.httpreq, ptr %11, i32 0, i32 2
  %13 = load ptr, ptr %12, align 8, !tbaa !255
  call void %10(ptr noundef %13)
  %14 = load ptr, ptr @Curl_cfree, align 8, !tbaa !97
  %15 = load ptr, ptr %2, align 8, !tbaa !249
  %16 = getelementptr inbounds nuw %struct.httpreq, ptr %15, i32 0, i32 3
  %17 = load ptr, ptr %16, align 8, !tbaa !256
  call void %14(ptr noundef %17)
  %18 = load ptr, ptr %2, align 8, !tbaa !249
  %19 = getelementptr inbounds nuw %struct.httpreq, ptr %18, i32 0, i32 4
  call void @Curl_dynhds_free(ptr noundef %19)
  %20 = load ptr, ptr %2, align 8, !tbaa !249
  %21 = getelementptr inbounds nuw %struct.httpreq, ptr %20, i32 0, i32 5
  call void @Curl_dynhds_free(ptr noundef %21)
  %22 = load ptr, ptr @Curl_cfree, align 8, !tbaa !97
  %23 = load ptr, ptr %2, align 8, !tbaa !249
  call void %22(ptr noundef %23)
  br label %24

24:                                               ; preds = %5, %1
  ret void
}

; Function Attrs: nounwind uwtable
define dso_local i32 @Curl_http_req_make(ptr noundef %0, ptr noundef %1, i64 noundef %2, ptr noundef %3, i64 noundef %4, ptr noundef %5, i64 noundef %6, ptr noundef %7, i64 noundef %8) #0 {
  %10 = alloca i32, align 4
  %11 = alloca ptr, align 8
  %12 = alloca ptr, align 8
  %13 = alloca i64, align 8
  %14 = alloca ptr, align 8
  %15 = alloca i64, align 8
  %16 = alloca ptr, align 8
  %17 = alloca i64, align 8
  %18 = alloca ptr, align 8
  %19 = alloca i64, align 8
  %20 = alloca ptr, align 8
  %21 = alloca i32, align 4
  %22 = alloca i32, align 4
  store ptr %0, ptr %11, align 8, !tbaa !247
  store ptr %1, ptr %12, align 8, !tbaa !83
  store i64 %2, ptr %13, align 8, !tbaa !121
  store ptr %3, ptr %14, align 8, !tbaa !83
  store i64 %4, ptr %15, align 8, !tbaa !121
  store ptr %5, ptr %16, align 8, !tbaa !83
  store i64 %6, ptr %17, align 8, !tbaa !121
  store ptr %7, ptr %18, align 8, !tbaa !83
  store i64 %8, ptr %19, align 8, !tbaa !121
  call void @llvm.lifetime.start.p0(i64 8, ptr %20) #6
  call void @llvm.lifetime.start.p0(i64 4, ptr %21) #6
  store i32 27, ptr %21, align 4, !tbaa !79
  br label %23

23:                                               ; preds = %9
  br label %24

24:                                               ; preds = %23
  br label %25

25:                                               ; preds = %24
  %26 = load i64, ptr %13, align 8, !tbaa !121
  %27 = add i64 %26, 1
  %28 = icmp ugt i64 %27, 24
  br i1 %28, label %29, label %30

29:                                               ; preds = %25
  store i32 43, ptr %10, align 4
  store i32 1, ptr %22, align 4
  br label %109

30:                                               ; preds = %25
  %31 = load ptr, ptr @Curl_ccalloc, align 8, !tbaa !97
  %32 = call ptr %31(i64 noundef 1, i64 noundef 160)
  store ptr %32, ptr %20, align 8, !tbaa !249
  %33 = load ptr, ptr %20, align 8, !tbaa !249
  %34 = icmp ne ptr %33, null
  br i1 %34, label %36, label %35

35:                                               ; preds = %30
  br label %91

36:                                               ; preds = %30
  %37 = load ptr, ptr %20, align 8, !tbaa !249
  %38 = getelementptr inbounds nuw %struct.httpreq, ptr %37, i32 0, i32 0
  %39 = getelementptr inbounds [24 x i8], ptr %38, i64 0, i64 0
  %40 = load ptr, ptr %12, align 8, !tbaa !83
  %41 = load i64, ptr %13, align 8, !tbaa !121
  call void @llvm.memcpy.p0.p0.i64(ptr align 8 %39, ptr align 1 %40, i64 %41, i1 false)
  %42 = load ptr, ptr %14, align 8, !tbaa !83
  %43 = icmp ne ptr %42, null
  br i1 %43, label %44, label %56

44:                                               ; preds = %36
  %45 = load ptr, ptr %14, align 8, !tbaa !83
  %46 = load i64, ptr %15, align 8, !tbaa !121
  %47 = call ptr @Curl_memdup0(ptr noundef %45, i64 noundef %46)
  %48 = load ptr, ptr %20, align 8, !tbaa !249
  %49 = getelementptr inbounds nuw %struct.httpreq, ptr %48, i32 0, i32 1
  store ptr %47, ptr %49, align 8, !tbaa !251
  %50 = load ptr, ptr %20, align 8, !tbaa !249
  %51 = getelementptr inbounds nuw %struct.httpreq, ptr %50, i32 0, i32 1
  %52 = load ptr, ptr %51, align 8, !tbaa !251
  %53 = icmp ne ptr %52, null
  br i1 %53, label %55, label %54

54:                                               ; preds = %44
  br label %91

55:                                               ; preds = %44
  br label %56

56:                                               ; preds = %55, %36
  %57 = load ptr, ptr %16, align 8, !tbaa !83
  %58 = icmp ne ptr %57, null
  br i1 %58, label %59, label %71

59:                                               ; preds = %56
  %60 = load ptr, ptr %16, align 8, !tbaa !83
  %61 = load i64, ptr %17, align 8, !tbaa !121
  %62 = call ptr @Curl_memdup0(ptr noundef %60, i64 noundef %61)
  %63 = load ptr, ptr %20, align 8, !tbaa !249
  %64 = getelementptr inbounds nuw %struct.httpreq, ptr %63, i32 0, i32 2
  store ptr %62, ptr %64, align 8, !tbaa !255
  %65 = load ptr, ptr %20, align 8, !tbaa !249
  %66 = getelementptr inbounds nuw %struct.httpreq, ptr %65, i32 0, i32 2
  %67 = load ptr, ptr %66, align 8, !tbaa !255
  %68 = icmp ne ptr %67, null
  br i1 %68, label %70, label %69

69:                                               ; preds = %59
  br label %91

70:                                               ; preds = %59
  br label %71

71:                                               ; preds = %70, %56
  %72 = load ptr, ptr %18, align 8, !tbaa !83
  %73 = icmp ne ptr %72, null
  br i1 %73, label %74, label %86

74:                                               ; preds = %71
  %75 = load ptr, ptr %18, align 8, !tbaa !83
  %76 = load i64, ptr %19, align 8, !tbaa !121
  %77 = call ptr @Curl_memdup0(ptr noundef %75, i64 noundef %76)
  %78 = load ptr, ptr %20, align 8, !tbaa !249
  %79 = getelementptr inbounds nuw %struct.httpreq, ptr %78, i32 0, i32 3
  store ptr %77, ptr %79, align 8, !tbaa !256
  %80 = load ptr, ptr %20, align 8, !tbaa !249
  %81 = getelementptr inbounds nuw %struct.httpreq, ptr %80, i32 0, i32 3
  %82 = load ptr, ptr %81, align 8, !tbaa !256
  %83 = icmp ne ptr %82, null
  br i1 %83, label %85, label %84

84:                                               ; preds = %74
  br label %91

85:                                               ; preds = %74
  br label %86

86:                                               ; preds = %85, %71
  %87 = load ptr, ptr %20, align 8, !tbaa !249
  %88 = getelementptr inbounds nuw %struct.httpreq, ptr %87, i32 0, i32 4
  call void @Curl_dynhds_init(ptr noundef %88, i64 noundef 0, i64 noundef 1048576)
  %89 = load ptr, ptr %20, align 8, !tbaa !249
  %90 = getelementptr inbounds nuw %struct.httpreq, ptr %89, i32 0, i32 5
  call void @Curl_dynhds_init(ptr noundef %90, i64 noundef 0, i64 noundef 1048576)
  store i32 0, ptr %21, align 4, !tbaa !79
  br label %91

91:                                               ; preds = %86, %84, %69, %54, %35
  %92 = load i32, ptr %21, align 4, !tbaa !79
  %93 = icmp ne i32 %92, 0
  br i1 %93, label %94, label %99

94:                                               ; preds = %91
  %95 = load ptr, ptr %20, align 8, !tbaa !249
  %96 = icmp ne ptr %95, null
  br i1 %96, label %97, label %99

97:                                               ; preds = %94
  %98 = load ptr, ptr %20, align 8, !tbaa !249
  call void @Curl_http_req_free(ptr noundef %98)
  br label %99

99:                                               ; preds = %97, %94, %91
  %100 = load i32, ptr %21, align 4, !tbaa !79
  %101 = icmp ne i32 %100, 0
  br i1 %101, label %102, label %103

102:                                              ; preds = %99
  br label %105

103:                                              ; preds = %99
  %104 = load ptr, ptr %20, align 8, !tbaa !249
  br label %105

105:                                              ; preds = %103, %102
  %106 = phi ptr [ null, %102 ], [ %104, %103 ]
  %107 = load ptr, ptr %11, align 8, !tbaa !247
  store ptr %106, ptr %107, align 8, !tbaa !249
  %108 = load i32, ptr %21, align 4, !tbaa !79
  store i32 %108, ptr %10, align 4
  store i32 1, ptr %22, align 4
  br label %109

109:                                              ; preds = %105, %29
  call void @llvm.lifetime.end.p0(i64 4, ptr %21) #6
  call void @llvm.lifetime.end.p0(i64 8, ptr %20) #6
  %110 = load i32, ptr %10, align 4
  ret i32 %110
}