; Function Attrs: nounwind uwtable
define dso_local range(i32 0, 44) i32 @Curl_http_req_make(ptr noundef writeonly captures(none) %0, ptr noundef readonly captures(none) %1, i64 noundef %2, ptr noundef %3, i64 noundef %4, ptr noundef %5, i64 noundef %6, ptr noundef %7, i64 noundef %8) local_unnamed_addr #0 {
  %10 = add i64 %2, -24
  %11 = icmp ult i64 %10, -25
  br i1 %11, label %43, label %12

12:                                               ; preds = %9
  %13 = load ptr, ptr @Curl_ccalloc, align 8, !tbaa !90
  %14 = tail call ptr %13(i64 noundef 1, i64 noundef 160) #11
  %.not46 = icmp eq ptr %14, null
  br i1 %.not46, label %41, label %15

15:                                               ; preds = %12
  tail call void @llvm.memcpy.p0.p0.i64(ptr nonnull align 8 %14, ptr align 1 %1, i64 %2, i1 false)
  %.not = icmp eq ptr %3, null
  br i1 %.not, label %19, label %16

16:                                               ; preds = %15
  %17 = tail call ptr @Curl_memdup0(ptr noundef nonnull %3, i64 noundef %4) #11
  %18 = getelementptr inbounds nuw i8, ptr %14, i64 24
  store ptr %17, ptr %18, align 8, !tbaa !225
  %.not35 = icmp eq ptr %17, null
  br i1 %.not35, label %Curl_http_req_free.exit, label %19

19:                                               ; preds = %16, %15
  %.not36 = icmp eq ptr %5, null
  br i1 %.not36, label %23, label %20

20:                                               ; preds = %19
  %21 = tail call ptr @Curl_memdup0(ptr noundef nonnull %5, i64 noundef %6) #11
  %22 = getelementptr inbounds nuw i8, ptr %14, i64 32
  store ptr %21, ptr %22, align 8, !tbaa !229
  %.not37 = icmp eq ptr %21, null
  br i1 %.not37, label %Curl_http_req_free.exit, label %23

23:                                               ; preds = %20, %19
  %.not38 = icmp eq ptr %7, null
  br i1 %.not38, label %.thread, label %24

24:                                               ; preds = %23
  %25 = tail call ptr @Curl_memdup0(ptr noundef nonnull %7, i64 noundef %8) #11
  %26 = getelementptr inbounds nuw i8, ptr %14, i64 40
  store ptr %25, ptr %26, align 8, !tbaa !230
  %.not39 = icmp eq ptr %25, null
  br i1 %.not39, label %Curl_http_req_free.exit, label %.thread

Curl_http_req_free.exit:                          ; preds = %16, %20, %24
  %27 = load ptr, ptr @Curl_cfree, align 8, !tbaa !90
  %28 = getelementptr inbounds nuw i8, ptr %14, i64 24
  %29 = load ptr, ptr %28, align 8, !tbaa !225
  tail call void %27(ptr noundef %29) #11
  %30 = load ptr, ptr @Curl_cfree, align 8, !tbaa !90
  %31 = getelementptr inbounds nuw i8, ptr %14, i64 32
  %32 = load ptr, ptr %31, align 8, !tbaa !229
  tail call void %30(ptr noundef %32) #11
  %33 = load ptr, ptr @Curl_cfree, align 8, !tbaa !90
  %34 = getelementptr inbounds nuw i8, ptr %14, i64 40
  %35 = load ptr, ptr %34, align 8, !tbaa !230
  tail call void %33(ptr noundef %35) #11
  %36 = getelementptr inbounds nuw i8, ptr %14, i64 48
  tail call void @Curl_dynhds_free(ptr noundef nonnull %36) #11
  %37 = getelementptr inbounds nuw i8, ptr %14, i64 104
  tail call void @Curl_dynhds_free(ptr noundef nonnull %37) #11
  %38 = load ptr, ptr @Curl_cfree, align 8, !tbaa !90
  tail call void %38(ptr noundef nonnull %14) #11
  br label %41

.thread:                                          ; preds = %23, %24
  %39 = getelementptr inbounds nuw i8, ptr %14, i64 48
  tail call void @Curl_dynhds_init(ptr noundef nonnull %39, i64 noundef 0, i64 noundef 1048576) #11
  %40 = getelementptr inbounds nuw i8, ptr %14, i64 104
  tail call void @Curl_dynhds_init(ptr noundef nonnull %40, i64 noundef 0, i64 noundef 1048576) #11
  br label %41

41:                                               ; preds = %12, %Curl_http_req_free.exit, %.thread
  %.04244 = phi i32 [ 0, %.thread ], [ 27, %12 ], [ 27, %Curl_http_req_free.exit ]
  %42 = phi ptr [ %14, %.thread ], [ null, %12 ], [ null, %Curl_http_req_free.exit ]
  store ptr %42, ptr %0, align 8, !tbaa !231
  br label %43

43:                                               ; preds = %9, %41
  %.030 = phi i32 [ %.04244, %41 ], [ 43, %9 ]
  ret i32 %.030
}